; Function Attrs: mustprogress uwtable
define noundef ptr @_ZNK19OpenColorIO_v2_5dev9FileRules4Impl19getRuleFromFilepathERKNS_6ConfigEPKcRm(ptr noundef nonnull readonly align 8 captures(none) dereferenceable(24) %0, ptr noundef nonnull align 8 dereferenceable(8) %1, ptr noundef %2, ptr noundef nonnull writeonly align 8 captures(none) dereferenceable(8) %3) local_unnamed_addr #0 align 2 {
  %5 = getelementptr inbounds nuw i8, ptr %0, i64 8
  %6 = load ptr, ptr %5, align 8, !tbaa !14
  %7 = load ptr, ptr %0, align 8, !tbaa !11
  %.not15.not = icmp eq ptr %6, %7
  br i1 %.not15.not, label %._crit_edge, label %.lr.ph.preheader

.lr.ph.preheader:                                 ; preds = %4
  %8 = ptrtoint ptr %6 to i64
  %9 = ptrtoint ptr %7 to i64
  %10 = sub i64 %8, %9
  %11 = ashr exact i64 %10, 4
  %umax = tail call i64 @llvm.umax.i64(i64 %11, i64 1)
  br label %.lr.ph

.lr.ph:                                           ; preds = %.lr.ph.preheader, %18
  %.01116 = phi i64 [ %19, %18 ], [ 0, %.lr.ph.preheader ]
  %12 = load ptr, ptr %0, align 8, !tbaa !11
  %13 = getelementptr inbounds nuw %"class.std::shared_ptr.0", ptr %12, i64 %.01116
  %14 = load ptr, ptr %13, align 8, !tbaa !36
  %15 = tail call noundef zeroext i1 @_ZNK19OpenColorIO_v2_5dev8FileRule7matchesERKNS_6ConfigEPKc(ptr noundef nonnull align 8 dereferenceable(212) %14, ptr noundef nonnull align 8 dereferenceable(8) %1, ptr noundef %2)
  br i1 %15, label %.thread, label %18

.thread:                                          ; preds = %.lr.ph
  store i64 %.01116, ptr %3, align 8, !tbaa !67
  %16 = load ptr, ptr %0, align 8, !tbaa !11
  %17 = getelementptr inbounds nuw %"class.std::shared_ptr.0", ptr %16, i64 %.01116
  br label %22

18:                                               ; preds = %.lr.ph
  %19 = add nuw i64 %.01116, 1
  %exitcond.not = icmp eq i64 %19, %umax
  br i1 %exitcond.not, label %._crit_edge.loopexit, label %.lr.ph, !llvm.loop !68

._crit_edge.loopexit:                             ; preds = %18
  %.pre = load ptr, ptr %5, align 8, !tbaa !35
  br label %._crit_edge

._crit_edge:                                      ; preds = %._crit_edge.loopexit, %4
  %20 = phi ptr [ %.pre, %._crit_edge.loopexit ], [ %6, %4 ]
  %21 = getelementptr inbounds i8, ptr %20, i64 -16
  br label %22

22:                                               ; preds = %.thread, %._crit_edge
  %.pn.in = phi ptr [ %21, %._crit_edge ], [ %17, %.thread ]
  %.pn = load ptr, ptr %.pn.in, align 8, !tbaa !36
  %.1.in = getelementptr inbounds nuw i8, ptr %.pn, i64 80
  %.1 = load ptr, ptr %.1.in, align 8, !tbaa !62
  ret ptr %.1
}